target datalayout = "e-m:e-p270:32:32-p271:32:32-p272:64:64-i64:64-i128:128-f80:128-n8:16:32:64-S128"
target triple = "x86_64-pc-linux-gnu"

%struct.bp_creation_ts_t = type { %struct.bp_dtn_time_t, i64 }
%struct.bp_dtn_time_t = type { i64, %struct.nstime_t }
%struct.nstime_t = type { i64, i32 }
%struct.bp_eid_t = type { ptr, i64, %struct._address, ptr, ptr, ptr }
%struct._address = type { i32, i32, ptr, ptr }
%struct.bp_block_primary_t = type { ptr, i64, ptr, ptr, ptr, %struct.bp_creation_ts_t, ptr, ptr, i64, ptr, %struct.security_mark_t }
%struct.security_mark_t = type { ptr, ptr }
%struct.bp_bundle_t = type { i32, i8, %struct.nstime_t, ptr, ptr, ptr, ptr, ptr, ptr, ptr }
%struct._packet_info = type { ptr, ptr, i32, i32, %struct.nstime_t, %struct.nstime_t, %struct.nstime_t, i8, ptr, ptr, ptr, ptr, %struct._address, %struct._address, %struct._address, %struct._address, %struct._address, %struct._address, i32, ptr, i8, [3 x i8], %struct.anon, i32, i32, i32, i32, ptr, i8, ptr, ptr, i16, i16, i32, i32, i16, i32, i32, ptr, ptr, ptr, i8, i8, i16, i16, i16, i32, i16, i16, ptr, ptr, ptr, ptr, ptr, i32, i32 }
%struct.anon = type { i8, [3 x i8] }

@proto_bp = internal global i32 0, align 4
@.str.344 = private unnamed_addr constant [9 x i8] c"dst (%u)\00", align 1

; Function Attrs: null_pointer_is_valid sspstrong uwtable
define internal void @ipn_serv_prompt(ptr noundef %0, ptr noundef %1) #2 {
  %3 = alloca ptr, align 8
  %4 = alloca ptr, align 8
  %5 = alloca ptr, align 8
  %6 = alloca i32, align 4
  store ptr %0, ptr %3, align 8
  store ptr %1, ptr %4, align 8
  call void @llvm.lifetime.start.p0(i64 8, ptr %5) #18
  %7 = load ptr, ptr %3, align 8
  %8 = getelementptr inbounds nuw %struct._packet_info, ptr %7, i32 0, i32 51
  %9 = load ptr, ptr %8, align 8
  %10 = load ptr, ptr %3, align 8
  %11 = load i32, ptr @proto_bp, align 4
  %12 = call ptr @p_get_proto_data(ptr noundef %9, ptr noundef %10, i32 noundef %11, i32 noundef 1)
  store ptr %12, ptr %5, align 8
  call void @llvm.lifetime.start.p0(i64 4, ptr %6) #18
  store i32 0, ptr %6, align 4
  %13 = load ptr, ptr %5, align 8
  %14 = icmp ne ptr %13, null
  br i1 %14, label %15, label %44

15:                                               ; preds = %2
  %16 = load ptr, ptr %5, align 8
  %17 = getelementptr inbounds nuw %struct.bp_bundle_t, ptr %16, i32 0, i32 4
  %18 = load ptr, ptr %17, align 8
  %19 = getelementptr inbounds nuw %struct.bp_block_primary_t, ptr %18, i32 0, i32 2
  %20 = load ptr, ptr %19, align 8
  %21 = getelementptr inbounds nuw %struct.bp_eid_t, ptr %20, i32 0, i32 5
  %22 = load ptr, ptr %21, align 8
  %23 = icmp ne ptr %22, null
  br i1 %23, label %24, label %44

24:                                               ; preds = %15
  %25 = load ptr, ptr %5, align 8
  %26 = getelementptr inbounds nuw %struct.bp_bundle_t, ptr %25, i32 0, i32 4
  %27 = load ptr, ptr %26, align 8
  %28 = getelementptr inbounds nuw %struct.bp_block_primary_t, ptr %27, i32 0, i32 2
  %29 = load ptr, ptr %28, align 8
  %30 = getelementptr inbounds nuw %struct.bp_eid_t, ptr %29, i32 0, i32 5
  %31 = load ptr, ptr %30, align 8
  %32 = load i64, ptr %31, align 8
  %33 = icmp ule i64 %32, 4294967295
  br i1 %33, label %34, label %44

34:                                               ; preds = %24
  %35 = load ptr, ptr %5, align 8
  %36 = getelementptr inbounds nuw %struct.bp_bundle_t, ptr %35, i32 0, i32 4
  %37 = load ptr, ptr %36, align 8
  %38 = getelementptr inbounds nuw %struct.bp_block_primary_t, ptr %37, i32 0, i32 2
  %39 = load ptr, ptr %38, align 8
  %40 = getelementptr inbounds nuw %struct.bp_eid_t, ptr %39, i32 0, i32 5
  %41 = load ptr, ptr %40, align 8
  %42 = load i64, ptr %41, align 8
  %43 = trunc i64 %42 to i32
  store i32 %43, ptr %6, align 4
  br label %44

44:                                               ; preds = %34, %24, %15, %2
  %45 = load ptr, ptr %4, align 8
  %46 = load ptr, ptr %4, align 8
  %47 = call i64 @llvm.objectsize.i64.p0(ptr %46, i1 false, i1 true, i1 true)
  %48 = load i32, ptr %6, align 4
  %49 = call i32 (ptr, i64, i32, i64, ptr, ...) @__snprintf_chk(ptr noundef %45, i64 noundef 200, i32 noundef 2, i64 noundef %47, ptr noundef @.str.344, i32 noundef %48)
  call void @llvm.lifetime.end.p0(i64 4, ptr %6) #18
  call void @llvm.lifetime.end.p0(i64 8, ptr %5) #18
  ret void
}