; Function Attrs: null_pointer_is_valid sspstrong uwtable
define internal void @ipn_serv_prompt(ptr noundef %0, ptr noundef %1) #2 {
  %3 = getelementptr inbounds nuw i8, ptr %0, i64 408
  %4 = load ptr, ptr %3, align 8
  %5 = load i32, ptr @proto_bp, align 4
  %6 = tail call ptr @p_get_proto_data(ptr noundef %4, ptr noundef %0, i32 noundef %5, i32 noundef 1)
  %.not = icmp eq ptr %6, null
  br i1 %.not, label %16, label %7

7:                                                ; preds = %2
  %8 = getelementptr inbounds nuw i8, ptr %6, i64 32
  %9 = load ptr, ptr %8, align 8
  %10 = getelementptr inbounds nuw i8, ptr %9, i64 16
  %11 = load ptr, ptr %10, align 8
  %12 = getelementptr inbounds nuw i8, ptr %11, i64 56
  %13 = load ptr, ptr %12, align 8
  %.not11 = icmp eq ptr %13, null
  br i1 %.not11, label %16, label %14

14:                                               ; preds = %7
  %15 = load i64, ptr %13, align 8
  %spec.select12 = tail call i64 @llvm.umin.i64(i64 %15, i64 4294967296)
  %spec.select = trunc i64 %spec.select12 to i32
  br label %16

16:                                               ; preds = %14, %7, %2
  %.0 = phi i32 [ 0, %7 ], [ 0, %2 ], [ %spec.select, %14 ]
  %17 = tail call i32 (ptr, i64, i32, i64, ptr, ...) @__snprintf_chk(ptr noundef %1, i64 noundef 200, i32 noundef 2, i64 noundef -1, ptr noundef nonnull @.str.344, i32 noundef %.0)
  ret void
}